#include <math.h>
#include <stdio.h>
#include <stdlib.h>
#include <string.h>
#include <iostream>
using namespace std;

/*
 * ????shuchushuzi.cpp
 * ??????
 * ?????2012 11 10
 * ???????????
 */



int main(){
    int n,m,i,j,k;  //????
    cin >>n;        //??????
    int N[n];
    for (i=0,k=0;i<n;i++,k++){    //???????
    	cin >>N[k];
    for (j=0;j<k;j++){
    	if (N[j]==N[k]) k--;  //????????????????????????????????????
    }
    }
    for (i=0;i<k;i++){
    	if (i==(k-1)) cout <<N[i];
    	else cout<<N[i]<<" ";    //????????
    }
    return 0;
}
